; Function Attrs: nofree norecurse nosync nounwind memory(readwrite, inaccessiblemem: none) uwtable
define i64 @Cnf_CutDeriveTruth(ptr noundef readnone captures(none) %0, ptr noundef readonly captures(none) %1, ptr noundef readonly captures(none) %2) local_unnamed_addr #2 {
  %4 = getelementptr i8, ptr %1, i64 4
  %.val2934 = load i32, ptr %4, align 4
  %5 = icmp sgt i32 %.val2934, 0
  br i1 %5, label %.lr.ph, label %.critedge.preheader

.lr.ph:                                           ; preds = %3
  %6 = getelementptr i8, ptr %1, i64 8
  br label %10

.critedge.preheader:                              ; preds = %10, %3
  %.024.lcssa = phi ptr [ null, %3 ], [ %12, %10 ]
  %7 = getelementptr i8, ptr %2, i64 4
  %.val2836 = load i32, ptr %7, align 4
  %8 = icmp sgt i32 %.val2836, 0
  br i1 %8, label %.lr.ph38, label %.critedge.preheader..critedge2_crit_edge

.critedge.preheader..critedge2_crit_edge:         ; preds = %.critedge.preheader
  %.phi.trans.insert = getelementptr inbounds nuw i8, ptr %.024.lcssa, i64 40
  %.pre = load i32, ptr %.phi.trans.insert, align 8
  %.phi.trans.insert45 = sext i32 %.pre to i64
  %.phi.trans.insert46 = getelementptr inbounds [256 x i64], ptr @Cnf_CutDeriveTruth.S, i64 0, i64 %.phi.trans.insert45
  %.pre47 = load i64, ptr %.phi.trans.insert46, align 8
  br label %.critedge2

.lr.ph38:                                         ; preds = %.critedge.preheader
  %9 = getelementptr i8, ptr %2, i64 8
  br label %.critedge

10:                                               ; preds = %.lr.ph, %10
  %indvars.iv = phi i64 [ 0, %.lr.ph ], [ %indvars.iv.next, %10 ]
  %.val31 = load ptr, ptr %6, align 8
  %11 = getelementptr inbounds nuw ptr, ptr %.val31, i64 %indvars.iv
  %12 = load ptr, ptr %11, align 8
  %13 = getelementptr inbounds nuw i8, ptr %12, i64 40
  %14 = trunc nuw nsw i64 %indvars.iv to i32
  store i32 %14, ptr %13, align 8
  %15 = getelementptr inbounds nuw [6 x i64], ptr @Cnf_CutDeriveTruth.Truth6, i64 0, i64 %indvars.iv
  %16 = load i64, ptr %15, align 8
  %17 = getelementptr inbounds nuw [256 x i64], ptr @Cnf_CutDeriveTruth.S, i64 0, i64 %indvars.iv
  store i64 %16, ptr %17, align 8
  %indvars.iv.next = add nuw nsw i64 %indvars.iv, 1
  %.val29 = load i32, ptr %4, align 4
  %18 = sext i32 %.val29 to i64
  %19 = icmp slt i64 %indvars.iv.next, %18
  br i1 %19, label %10, label %.critedge.preheader, !llvm.loop !7

.critedge:                                        ; preds = %.lr.ph38, %.critedge
  %indvars.iv42 = phi i64 [ 0, %.lr.ph38 ], [ %indvars.iv.next43, %.critedge ]
  %.val30 = load ptr, ptr %9, align 8
  %20 = getelementptr inbounds nuw ptr, ptr %.val30, i64 %indvars.iv42
  %21 = load ptr, ptr %20, align 8
  %.val27 = load i32, ptr %4, align 4
  %22 = trunc nuw nsw i64 %indvars.iv42 to i32
  %23 = add nsw i32 %.val27, %22
  %24 = getelementptr inbounds nuw i8, ptr %21, i64 40
  store i32 %23, ptr %24, align 8
  %25 = getelementptr i8, ptr %21, i64 8
  %.val = load ptr, ptr %25, align 8
  %26 = ptrtoint ptr %.val to i64
  %27 = and i64 %26, -2
  %28 = inttoptr i64 %27 to ptr
  %29 = getelementptr inbounds nuw i8, ptr %28, i64 40
  %30 = load i32, ptr %29, align 8
  %31 = sext i32 %30 to i64
  %32 = getelementptr inbounds [256 x i64], ptr @Cnf_CutDeriveTruth.S, i64 0, i64 %31
  %33 = load i64, ptr %32, align 8
  %34 = and i64 %26, 1
  %35 = getelementptr inbounds nuw [2 x i64], ptr @Cnf_CutDeriveTruth.C, i64 0, i64 %34
  %36 = load i64, ptr %35, align 8
  %37 = xor i64 %36, %33
  %38 = getelementptr i8, ptr %21, i64 16
  %.val26 = load ptr, ptr %38, align 8
  %39 = ptrtoint ptr %.val26 to i64
  %40 = and i64 %39, -2
  %41 = inttoptr i64 %40 to ptr
  %42 = getelementptr inbounds nuw i8, ptr %41, i64 40
  %43 = load i32, ptr %42, align 8
  %44 = sext i32 %43 to i64
  %45 = getelementptr inbounds [256 x i64], ptr @Cnf_CutDeriveTruth.S, i64 0, i64 %44
  %46 = load i64, ptr %45, align 8
  %47 = and i64 %39, 1
  %48 = getelementptr inbounds nuw [2 x i64], ptr @Cnf_CutDeriveTruth.C, i64 0, i64 %47
  %49 = load i64, ptr %48, align 8
  %50 = xor i64 %49, %46
  %51 = and i64 %50, %37
  %52 = sext i32 %23 to i64
  %53 = getelementptr inbounds [256 x i64], ptr @Cnf_CutDeriveTruth.S, i64 0, i64 %52
  store i64 %51, ptr %53, align 8
  %indvars.iv.next43 = add nuw nsw i64 %indvars.iv42, 1
  %.val28 = load i32, ptr %7, align 4
  %54 = sext i32 %.val28 to i64
  %55 = icmp slt i64 %indvars.iv.next43, %54
  br i1 %55, label %.critedge, label %.critedge2, !llvm.loop !8

.critedge2:                                       ; preds = %.critedge, %.critedge.preheader..critedge2_crit_edge
  %56 = phi i64 [ %.pre47, %.critedge.preheader..critedge2_crit_edge ], [ %51, %.critedge ]
  ret i64 %56
}